; Function Attrs: nounwind uwtable
define hidden i32 @SDL_hid_read_timeout_REAL(ptr noundef %0, ptr noundef %1, i64 noundef %2, i32 noundef %3) local_unnamed_addr #1 {
  %5 = tail call zeroext i1 @SDL_ObjectValid(ptr noundef %0, i32 noundef 8) #22
  br i1 %5, label %8, label %6

6:                                                ; preds = %4
  %7 = tail call zeroext i1 (ptr, ...) @SDL_SetError_REAL(ptr noundef nonnull @.str.30) #22
  br label %15

8:                                                ; preds = %4
  %9 = getelementptr inbounds nuw i8, ptr %0, i64 8
  %10 = load ptr, ptr %9, align 8
  %11 = getelementptr inbounds nuw i8, ptr %10, i64 8
  %12 = load ptr, ptr %11, align 8
  %13 = load ptr, ptr %0, align 8
  %14 = tail call i32 %12(ptr noundef %13, ptr noundef %1, i64 noundef %2, i32 noundef %3) #22
  br label %15

15:                                               ; preds = %8, %6
  %.0 = phi i32 [ %14, %8 ], [ -1, %6 ]
  ret i32 %.0
}